; Function Attrs: mustprogress nofree norecurse nosync nounwind willreturn memory(read, inaccessiblemem: none) uwtable
define dso_local noundef i32 @_ZNK9struct_pb8compiler14OneofGenerator9get_indexEPKN6google8protobuf15FieldDescriptorE(ptr nocapture noundef nonnull readonly align 8 dereferenceable(56) %this, ptr noundef readnone %f) local_unnamed_addr #6 align 2 {
entry:
  %d_ = getelementptr inbounds i8, ptr %this, i64 48
  %0 = load ptr, ptr %d_, align 8
  %field_count_.i = getelementptr inbounds i8, ptr %0, i64 24
  %1 = load i32, ptr %field_count_.i, align 8
  %cmp5 = icmp sgt i32 %1, 0
  br i1 %cmp5, label %for.body.lr.ph, label %for.end

for.body.lr.ph:                                   ; preds = %entry
  %fields_.i = getelementptr inbounds i8, ptr %0, i64 32
  %2 = load ptr, ptr %fields_.i, align 8
  %wide.trip.count = zext nneg i32 %1 to i64
  br label %for.body

for.body:                                         ; preds = %for.body.lr.ph, %for.body
  %indvars.iv = phi i64 [ 0, %for.body.lr.ph ], [ %indvars.iv.next, %for.body ]
  %index.07 = phi i32 [ 0, %for.body.lr.ph ], [ %spec.select, %for.body ]
  %arrayidx.i = getelementptr inbounds ptr, ptr %2, i64 %indvars.iv
  %3 = load ptr, ptr %arrayidx.i, align 8
  %cmp4 = icmp eq ptr %3, %f
  %indvars.iv.next = add nuw nsw i64 %indvars.iv, 1
  %4 = trunc i64 %indvars.iv.next to i32
  %spec.select = select i1 %cmp4, i32 %4, i32 %index.07
  %exitcond.not = icmp eq i64 %indvars.iv.next, %wide.trip.count
  br i1 %exitcond.not, label %for.end, label %for.body, !llvm.loop !73

for.end:                                          ; preds = %for.body, %entry
  %index.0.lcssa = phi i32 [ 0, %entry ], [ %spec.select, %for.body ]
  ret i32 %index.0.lcssa
}